#include <math.h>
#include <stdio.h>
#include <stdlib.h>
#include <string.h>

void main()
{
	int i,j,n,*num,t;
	scanf("%d",&n);
	t=n/2;
	num=(int*) malloc (sizeof(int)*n);
	for (i=0;i<n;i++)
		scanf("%d",&num[i]);
	for (i=0;i<t;i++)
	{
		j=num[i];
		num[i]=num[n-1-i];
		num[n-1-i]=j;
	}
	for (i=0;i<n;i++)
	{
		printf("%d",num[i]);
		if(i<n-1) printf(" ");
	}
	free(num);
}